Certificate:
    Data:
        Version: 3 (0x2)
        Serial Number: 1 (0x1)
        Signature Algorithm: sha256WithRSAEncryption
        Issuer: C=CN, ST=SC, L=CHENGDU, O=root_vpn/emailAddress=localhost@local.mydomain
        Validity
            Not Before: Nov  9 02:43:42 2018 GMT
            Not After : Nov  6 02:43:42 2028 GMT
        Subject: C=CN, ST=SC, O=root_vpn, CN=root-server/emailAddress=localhost@local.mydomain
        Subject Public Key Info:
            Public Key Algorithm: rsaEncryption
            RSA Public Key: (2048 bit)
                Modulus (2048 bit):
                    00:9e:3c:c2:65:ef:65:63:8e:3d:ba:3c:b3:27:50:
                    0b:68:6d:31:82:dd:cd:10:4d:1c:71:18:d8:89:93:
                    bd:28:b7:06:d9:fb:91:88:38:be:14:d4:6c:39:73:
                    63:d1:16:bd:28:04:c1:57:a0:f1:36:2e:20:bc:8c:
                    94:e4:61:3b:72:86:4f:b7:3d:59:32:26:1a:e8:cf:
                    d0:3b:8a:9a:38:b6:cb:26:d7:cc:96:26:6c:df:c0:
                    c2:cb:32:6d:ba:6e:17:6d:83:12:15:b1:f8:5c:bf:
                    a0:19:f3:fa:ed:0f:e1:36:f1:8e:a0:a2:dd:fd:b1:
                    9b:05:7b:bb:90:9e:a8:e4:a7:1b:6b:d8:b8:18:d8:
                    a8:24:70:bb:d7:cd:c6:7b:57:a0:34:18:d7:3a:2e:
                    00:75:e5:09:c2:1a:53:38:6a:12:80:21:50:29:6a:
                    86:1c:22:97:05:cf:3c:ff:4b:60:f3:cd:18:5f:19:
                    de:dd:b2:08:15:9b:c1:73:07:f1:bd:0a:82:78:27:
                    9d:95:5e:27:01:d3:bb:75:5a:a9:e3:de:01:57:d0:
                    db:df:71:51:15:15:b3:44:fd:ef:46:3b:6c:f2:4e:
                    38:3d:5e:18:a6:df:21:0b:4b:ad:d9:e4:22:86:8d:
                    f6:b3:71:d6:96:fd:de:28:e4:25:70:58:c1:cc:9b:
                    65:6d
                Exponent: 65537 (0x10001)
        X509v3 extensions:
            X509v3 Basic Constraints: 
                CA:FALSE
            Netscape Cert Type: 
                SSL Server
            Netscape Comment: 
                OpenSSL Generated Server Certificate
            X509v3 Subject Key Identifier: 
                32:6C:93:7C:32:C5:20:51:31:6B:01:9F:6D:31:90:DF:D0:15:59:38
            X509v3 Authority Key Identifier: 
                keyid:0D:A8:37:D4:3D:94:3F:7E:21:53:CA:74:A0:14:DD:FE:15:85:58:7D
                DirName:/C=CN/ST=SC/L=CHENGDU/O=root_vpn/emailAddress=localhost@local.mydomain
                serial:F2:69:D8:37:F3:43:7D:30

            X509v3 Extended Key Usage: 
                TLS Web Server Authentication
            X509v3 Key Usage: 
                Digital Signature, Key Encipherment
    Signature Algorithm: sha256WithRSAEncryption
        6d:d7:6a:f1:32:ee:3e:98:4d:35:66:df:c2:8d:43:95:d2:bf:
        bd:c0:73:3e:fb:a3:2b:50:60:b8:66:45:07:1d:99:6d:f2:eb:
        59:62:f9:6b:36:91:48:fd:9a:9e:5a:f9:bf:8a:64:0a:18:2a:
        f7:eb:e1:1e:ef:2d:42:e8:b8:d4:45:80:c5:03:25:e1:bf:0a:
        f5:ed:b4:27:29:d9:d1:3d:06:ca:3f:00:9a:e8:16:9b:6b:71:
        aa:df:48:66:74:a7:28:13:18:61:9f:22:8a:9e:5c:19:56:50:
        e3:d0:55:d8:33:9d:c6:47:d3:21:22:ca:a0:56:5f:fc:b5:b9:
        d0:94:52:4a:92:61:09:ee:09:0f:e5:25:32:52:60:dc:92:f9:
        10:7c:8b:95:21:05:8d:35:73:2b:67:fe:69:82:12:b0:7d:e6:
        42:c3:b4:0a:12:72:59:51:c3:12:3d:a0:fe:f4:45:17:70:a1:
        55:7f:55:5c:d1:1b:c1:4a:ed:11:78:6f:7f:6d:00:38:0d:af:
        bb:49:03:53:c4:90:ee:5d:32:3e:1b:e1:c5:50:fc:1d:2f:dd:
        76:53:39:93:93:e2:eb:a6:4b:d1:5e:57:b6:21:a9:c5:f0:e8:
        cd:56:9c:d9:78:d2:48:24:a2:66:3b:02:f5:9f:11:4e:e8:f2:
        71:06:56:18:f5:ce:3e:16:70:3b:b9:4e:38:a7:f0:9a:d0:1e:
        ec:d7:42:04:db:1b:76:79:0e:62:ef:b1:92:6d:37:d8:64:a9:
        95:2b:f5:b1:ba:b6:4b:45:14:4c:27:53:b0:e7:65:53:7f:a3:
        87:60:c7:f1:61:04:11:f3:c8:6e:e3:99:54:fa:12:28:81:9a:
        2c:f4:2b:6d:a0:ea:8d:86:91:aa:11:cb:34:5f:c1:b7:39:2a:
        fa:65:a6:a4:0b:4f:46:fd:f5:1b:64:79:ff:48:0e:73:0c:db:
        1b:10:33:93:45:01:d9:dc:10:b7:4a:16:c8:79:41:28:55:6a:
        7c:6e:e2:87:54:be:c3:b1:d5:6c:e7:78:c4:92:17:8a:b8:d9:
        3d:46:e1:e4:d9:2f:00:26:a1:89:47:c3:0a:ea:21:4a:77:84:
        f0:f3:98:1d:40:21:2b:7b:f1:6c:f9:12:6a:e9:3e:33:5e:fb:
        56:b2:16:42:17:21:69:28:fb:52:06:88:20:b5:fc:0c:47:00:
        9a:d4:7f:44:c1:aa:1d:43:89:c2:28:25:46:c0:5b:44:1d:82:
        06:61:62:fc:f0:01:7d:96:be:ad:70:67:95:5c:a7:3c:b9:3f:
        cc:6b:56:f6:fd:a5:64:f6:a8:77:6d:35:8c:75:ba:7c:d1:fa:
        b9:b5:36:e4:30:01:ee:a9
-----BEGIN CERTIFICATE-----
MIIFhjCCA26gAwIBAgIBATANBgkqhkiG9w0BAQsFADBoMQswCQYDVQQGEwJDTjEL
MAkGA1UECBMCU0MxEDAOBgNVBAcTB0NIRU5HRFUxETAPBgNVBAoUCHJvb3RfdnBu
MScwJQYJKoZIhvcNAQkBFhhsb2NhbGhvc3RAbG9jYWwubXlkb21haW4wHhcNMTgx
MTA5MDI0MzQyWhcNMjgxMTA2MDI0MzQyWjBsMQswCQYDVQQGEwJDTjELMAkGA1UE
CBMCU0MxETAPBgNVBAoUCHJvb3RfdnBuMRQwEgYDVQQDEwtyb290LXNlcnZlcjEn
MCUGCSqGSIb3DQEJARYYbG9jYWxob3N0QGxvY2FsLm15ZG9tYWluMIIBIjANBgkq
hkiG9w0BAQEFAAOCAQ8AMIIBCgKCAQEAnjzCZe9lY449ujyzJ1ALaG0xgt3NEE0c
cRjYiZO9KLcG2fuRiDi+FNRsOXNj0Ra9KATBV6DxNi4gvIyU5GE7coZPtz1ZMiYa
6M/QO4qaOLbLJtfMliZs38DCyzJtum4XbYMSFbH4XL+gGfP67Q/hNvGOoKLd/bGb
BXu7kJ6o5Kcba9i4GNioJHC7183Ge1egNBjXOi4AdeUJwhpTOGoSgCFQKWqGHCKX
Bc88/0tg880YXxne3bIIFZvBcwfxvQqCeCedlV4nAdO7dVqp494BV9Db33FRFRWz
RP3vRjts8k44PV4Ypt8hC0ut2eQiho32s3HWlv3eKOQlcFjBzJtlbQIDAQABo4IB
NTCCATEwCQYDVR0TBAIwADARBglghkgBhvhCAQEEBAMCBkAwMwYJYIZIAYb4QgEN
BCYWJE9wZW5TU0wgR2VuZXJhdGVkIFNlcnZlciBDZXJ0aWZpY2F0ZTAdBgNVHQ4E
FgQUMmyTfDLFIFExawGfbTGQ39AVWTgwgZoGA1UdIwSBkjCBj4AUDag31D2UP34h
U8p0oBTd/hWFWH2hbKRqMGgxCzAJBgNVBAYTAkNOMQswCQYDVQQIEwJTQzEQMA4G
A1UEBxMHQ0hFTkdEVTERMA8GA1UEChQIcm9vdF92cG4xJzAlBgkqhkiG9w0BCQEW
GGxvY2FsaG9zdEBsb2NhbC5teWRvbWFpboIJAPJp2DfzQ30wMBMGA1UdJQQMMAoG
CCsGAQUFBwMBMAsGA1UdDwQEAwIFoDANBgkqhkiG9w0BAQsFAAOCAgEAbddq8TLu
PphNNWbfwo1DldK/vcBzPvujK1BguGZFBx2ZbfLrWWL5azaRSP2anlr5v4pkChgq
9+vhHu8tQui41EWAxQMl4b8K9e20JynZ0T0Gyj8AmugWm2txqt9IZnSnKBMYYZ8i
ip5cGVZQ49BV2DOdxkfTISLKoFZf/LW50JRSSpJhCe4JD+UlMlJg3JL5EHyLlSEF
jTVzK2f+aYISsH3mQsO0ChJyWVHDEj2g/vRFF3ChVX9VXNEbwUrtEXhvf20AOA2v
u0kDU8SQ7l0yPhvhxVD8HS/ddlM5k5Pi66ZL0V5XtiGpxfDozVac2XjSSCSiZjsC
9Z8RTujycQZWGPXOPhZwO7lOOKfwmtAe7NdCBNsbdnkOYu+xkm032GSplSv1sbq2
S0UUTCdTsOdlU3+jh2DH8WEEEfPIbuOZVPoSKIGaLPQrbaDqjYaRqhHLNF/Btzkq
+mWmpAtPRv31G2R5/0gOcwzbGxAzk0UB2dwQt0oWyHlBKFVqfG7ih1S+w7HVbOd4
xJIXirjZPUbh5NkvACahiUfDCuohSneE8POYHUAhK3vxbPkSauk+M177VrIWQhch
aSj7UgaIILX8DEcAmtR/RMGqHUOJwiglRsBbRB2CBmFi/PABfZa+rXBnlVynPLk/
zGtW9v2lZPaod201jHW6fNH6ubU25DAB7qk=
-----END CERTIFICATE-----
